target datalayout = "e-m:e-p270:32:32-p271:32:32-p272:64:64-i64:64-i128:128-f80:128-n8:16:32:64-S128"
target triple = "x86_64-pc-linux-gnu"

%struct.AudioFFTDeNoiseContext = type { ptr, i32, i64, i64, float, float, i32, ptr, float, i32, i32, i32, i32, float, i32, float, float, i32, i32, i32, i32, float, i32, i32, i32, i32, i32, i32, i32, [15 x i32], ptr, ptr, ptr, ptr, ptr, ptr, double, double, double, [17 x i32], i32, [25 x double], [5 x double], [75 x double], [75 x double] }
%struct.DeNoiseChannel = type { [15 x double], [15 x double], [15 x double], ptr, ptr, ptr, ptr, ptr, ptr, ptr, ptr, ptr, ptr, ptr, ptr, ptr, ptr, ptr, ptr, ptr, ptr, ptr, ptr, [15 x double], [15 x double], [15 x double], [15 x double], double, double, double, double, double, double, double, double, double }

; Function Attrs: nounwind uwtable
define internal void @solve(ptr noundef %0, ptr noundef %1, i32 noundef %2) #1 {
  %4 = alloca ptr, align 8
  %5 = alloca ptr, align 8
  %6 = alloca i32, align 4
  %7 = alloca i32, align 4
  %8 = alloca i32, align 4
  %9 = alloca i32, align 4
  %10 = alloca double, align 8
  %11 = alloca i32, align 4
  %12 = alloca double, align 8
  %13 = alloca i32, align 4
  store ptr %0, ptr %4, align 8, !tbaa !115
  store ptr %1, ptr %5, align 8, !tbaa !115
  store i32 %2, ptr %6, align 4, !tbaa !32
  call void @llvm.lifetime.start.p0(i64 4, ptr %7) #12
  store i32 0, ptr %7, align 4, !tbaa !32
  br label %14

14:                                               ; preds = %55, %3
  %15 = load i32, ptr %7, align 4, !tbaa !32
  %16 = load i32, ptr %6, align 4, !tbaa !32
  %17 = sub nsw i32 %16, 1
  %18 = icmp slt i32 %15, %17
  br i1 %18, label %20, label %19

19:                                               ; preds = %14
  store i32 2, ptr %8, align 4
  call void @llvm.lifetime.end.p0(i64 4, ptr %7) #12
  br label %58

20:                                               ; preds = %14
  call void @llvm.lifetime.start.p0(i64 4, ptr %9) #12
  %21 = load i32, ptr %7, align 4, !tbaa !32
  %22 = add nsw i32 %21, 1
  store i32 %22, ptr %9, align 4, !tbaa !32
  br label %23

23:                                               ; preds = %51, %20
  %24 = load i32, ptr %9, align 4, !tbaa !32
  %25 = load i32, ptr %6, align 4, !tbaa !32
  %26 = icmp slt i32 %24, %25
  br i1 %26, label %28, label %27

27:                                               ; preds = %23
  store i32 5, ptr %8, align 4
  call void @llvm.lifetime.end.p0(i64 4, ptr %9) #12
  br label %54

28:                                               ; preds = %23
  call void @llvm.lifetime.start.p0(i64 8, ptr %10) #12
  %29 = load ptr, ptr %4, align 8, !tbaa !115
  %30 = load i32, ptr %9, align 4, !tbaa !32
  %31 = load i32, ptr %7, align 4, !tbaa !32
  %32 = load i32, ptr %6, align 4, !tbaa !32
  %33 = mul nsw i32 %31, %32
  %34 = add nsw i32 %30, %33
  %35 = sext i32 %34 to i64
  %36 = getelementptr inbounds double, ptr %29, i64 %35
  %37 = load double, ptr %36, align 8, !tbaa !62
  store double %37, ptr %10, align 8, !tbaa !62
  %38 = load double, ptr %10, align 8, !tbaa !62
  %39 = load ptr, ptr %5, align 8, !tbaa !115
  %40 = load i32, ptr %7, align 4, !tbaa !32
  %41 = sext i32 %40 to i64
  %42 = getelementptr inbounds double, ptr %39, i64 %41
  %43 = load double, ptr %42, align 8, !tbaa !62
  %44 = load ptr, ptr %5, align 8, !tbaa !115
  %45 = load i32, ptr %9, align 4, !tbaa !32
  %46 = sext i32 %45 to i64
  %47 = getelementptr inbounds double, ptr %44, i64 %46
  %48 = load double, ptr %47, align 8, !tbaa !62
  %49 = fneg nsz double %38
  %50 = call nsz double @llvm.fmuladd.f64(double %49, double %43, double %48)
  store double %50, ptr %47, align 8, !tbaa !62
  call void @llvm.lifetime.end.p0(i64 8, ptr %10) #12
  br label %51

51:                                               ; preds = %28
  %52 = load i32, ptr %9, align 4, !tbaa !32
  %53 = add nsw i32 %52, 1
  store i32 %53, ptr %9, align 4, !tbaa !32
  br label %23, !llvm.loop !158

54:                                               ; preds = %27
  br label %55

55:                                               ; preds = %54
  %56 = load i32, ptr %7, align 4, !tbaa !32
  %57 = add nsw i32 %56, 1
  store i32 %57, ptr %7, align 4, !tbaa !32
  br label %14, !llvm.loop !159

58:                                               ; preds = %19
  %59 = load ptr, ptr %4, align 8, !tbaa !115
  %60 = load i32, ptr %6, align 4, !tbaa !32
  %61 = load i32, ptr %6, align 4, !tbaa !32
  %62 = mul nsw i32 %60, %61
  %63 = sub nsw i32 %62, 1
  %64 = sext i32 %63 to i64
  %65 = getelementptr inbounds double, ptr %59, i64 %64
  %66 = load double, ptr %65, align 8, !tbaa !62
  %67 = load ptr, ptr %5, align 8, !tbaa !115
  %68 = load i32, ptr %6, align 4, !tbaa !32
  %69 = sub nsw i32 %68, 1
  %70 = sext i32 %69 to i64
  %71 = getelementptr inbounds double, ptr %67, i64 %70
  %72 = load double, ptr %71, align 8, !tbaa !62
  %73 = fdiv nsz double %72, %66
  store double %73, ptr %71, align 8, !tbaa !62
  call void @llvm.lifetime.start.p0(i64 4, ptr %11) #12
  %74 = load i32, ptr %6, align 4, !tbaa !32
  %75 = sub nsw i32 %74, 2
  store i32 %75, ptr %11, align 4, !tbaa !32
  br label %76

76:                                               ; preds = %130, %58
  %77 = load i32, ptr %11, align 4, !tbaa !32
  %78 = icmp sge i32 %77, 0
  br i1 %78, label %80, label %79

79:                                               ; preds = %76
  store i32 8, ptr %8, align 4
  call void @llvm.lifetime.end.p0(i64 4, ptr %11) #12
  br label %133

80:                                               ; preds = %76
  call void @llvm.lifetime.start.p0(i64 8, ptr %12) #12
  %81 = load ptr, ptr %5, align 8, !tbaa !115
  %82 = load i32, ptr %11, align 4, !tbaa !32
  %83 = sext i32 %82 to i64
  %84 = getelementptr inbounds double, ptr %81, i64 %83
  %85 = load double, ptr %84, align 8, !tbaa !62
  store double %85, ptr %12, align 8, !tbaa !62
  call void @llvm.lifetime.start.p0(i64 4, ptr %13) #12
  %86 = load i32, ptr %11, align 4, !tbaa !32
  %87 = add nsw i32 %86, 1
  store i32 %87, ptr %13, align 4, !tbaa !32
  br label %88

88:                                               ; preds = %111, %80
  %89 = load i32, ptr %13, align 4, !tbaa !32
  %90 = load i32, ptr %6, align 4, !tbaa !32
  %91 = icmp slt i32 %89, %90
  br i1 %91, label %93, label %92

92:                                               ; preds = %88
  store i32 11, ptr %8, align 4
  call void @llvm.lifetime.end.p0(i64 4, ptr %13) #12
  br label %114

93:                                               ; preds = %88
  %94 = load ptr, ptr %4, align 8, !tbaa !115
  %95 = load i32, ptr %11, align 4, !tbaa !32
  %96 = load i32, ptr %13, align 4, !tbaa !32
  %97 = load i32, ptr %6, align 4, !tbaa !32
  %98 = mul nsw i32 %96, %97
  %99 = add nsw i32 %95, %98
  %100 = sext i32 %99 to i64
  %101 = getelementptr inbounds double, ptr %94, i64 %100
  %102 = load double, ptr %101, align 8, !tbaa !62
  %103 = load ptr, ptr %5, align 8, !tbaa !115
  %104 = load i32, ptr %13, align 4, !tbaa !32
  %105 = sext i32 %104 to i64
  %106 = getelementptr inbounds double, ptr %103, i64 %105
  %107 = load double, ptr %106, align 8, !tbaa !62
  %108 = load double, ptr %12, align 8, !tbaa !62
  %109 = fneg nsz double %102
  %110 = call nsz double @llvm.fmuladd.f64(double %109, double %107, double %108)
  store double %110, ptr %12, align 8, !tbaa !62
  br label %111

111:                                              ; preds = %93
  %112 = load i32, ptr %13, align 4, !tbaa !32
  %113 = add nsw i32 %112, 1
  store i32 %113, ptr %13, align 4, !tbaa !32
  br label %88, !llvm.loop !160

114:                                              ; preds = %92
  %115 = load double, ptr %12, align 8, !tbaa !62
  %116 = load ptr, ptr %4, align 8, !tbaa !115
  %117 = load i32, ptr %11, align 4, !tbaa !32
  %118 = load i32, ptr %11, align 4, !tbaa !32
  %119 = load i32, ptr %6, align 4, !tbaa !32
  %120 = mul nsw i32 %118, %119
  %121 = add nsw i32 %117, %120
  %122 = sext i32 %121 to i64
  %123 = getelementptr inbounds double, ptr %116, i64 %122
  %124 = load double, ptr %123, align 8, !tbaa !62
  %125 = fdiv nsz double %115, %124
  %126 = load ptr, ptr %5, align 8, !tbaa !115
  %127 = load i32, ptr %11, align 4, !tbaa !32
  %128 = sext i32 %127 to i64
  %129 = getelementptr inbounds double, ptr %126, i64 %128
  store double %125, ptr %129, align 8, !tbaa !62
  call void @llvm.lifetime.end.p0(i64 8, ptr %12) #12
  br label %130

130:                                              ; preds = %114
  %131 = load i32, ptr %11, align 4, !tbaa !32
  %132 = add nsw i32 %131, -1
  store i32 %132, ptr %11, align 4, !tbaa !32
  br label %76, !llvm.loop !161

133:                                              ; preds = %79
  ret void
}

; Function Attrs: nounwind uwtable
define internal double @process_get_band_noise(ptr noundef %0, ptr noundef %1, i32 noundef %2) #1 {
  %4 = alloca double, align 8
  %5 = alloca ptr, align 8
  %6 = alloca ptr, align 8
  %7 = alloca i32, align 4
  %8 = alloca double, align 8
  %9 = alloca double, align 8
  %10 = alloca double, align 8
  %11 = alloca i32, align 4
  %12 = alloca i32, align 4
  %13 = alloca i32, align 4
  %14 = alloca i32, align 4
  %15 = alloca i32, align 4
  store ptr %0, ptr %5, align 8, !tbaa !22
  store ptr %1, ptr %6, align 8, !tbaa !34
  store i32 %2, ptr %7, align 4, !tbaa !32
  call void @llvm.lifetime.start.p0(i64 8, ptr %8) #12
  call void @llvm.lifetime.start.p0(i64 8, ptr %9) #12
  call void @llvm.lifetime.start.p0(i64 8, ptr %10) #12
  call void @llvm.lifetime.start.p0(i64 4, ptr %11) #12
  store i32 0, ptr %11, align 4, !tbaa !32
  %16 = load i32, ptr %7, align 4, !tbaa !32
  %17 = icmp slt i32 %16, 15
  br i1 %17, label %18, label %25

18:                                               ; preds = %3
  %19 = load ptr, ptr %6, align 8, !tbaa !34
  %20 = getelementptr inbounds nuw %struct.DeNoiseChannel, ptr %19, i32 0, i32 0
  %21 = load i32, ptr %7, align 4, !tbaa !32
  %22 = sext i32 %21 to i64
  %23 = getelementptr inbounds [15 x double], ptr %20, i64 0, i64 %22
  %24 = load double, ptr %23, align 8, !tbaa !62
  store double %24, ptr %4, align 8
  store i32 1, ptr %12, align 4
  br label %110

25:                                               ; preds = %3
  call void @llvm.lifetime.start.p0(i64 4, ptr %13) #12
  store i32 0, ptr %13, align 4, !tbaa !32
  br label %26

26:                                               ; preds = %61, %25
  %27 = load i32, ptr %13, align 4, !tbaa !32
  %28 = icmp slt i32 %27, 5
  br i1 %28, label %30, label %29

29:                                               ; preds = %26
  store i32 2, ptr %12, align 4
  call void @llvm.lifetime.end.p0(i64 4, ptr %13) #12
  br label %64

30:                                               ; preds = %26
  store double 0.000000e+00, ptr %9, align 8, !tbaa !62
  call void @llvm.lifetime.start.p0(i64 4, ptr %14) #12
  store i32 0, ptr %14, align 4, !tbaa !32
  br label %31

31:                                               ; preds = %51, %30
  %32 = load i32, ptr %14, align 4, !tbaa !32
  %33 = icmp slt i32 %32, 15
  br i1 %33, label %35, label %34

34:                                               ; preds = %31
  store i32 5, ptr %12, align 4
  call void @llvm.lifetime.end.p0(i64 4, ptr %14) #12
  br label %54

35:                                               ; preds = %31
  %36 = load ptr, ptr %5, align 8, !tbaa !22
  %37 = getelementptr inbounds nuw %struct.AudioFFTDeNoiseContext, ptr %36, i32 0, i32 43
  %38 = load i32, ptr %11, align 4, !tbaa !32
  %39 = add nsw i32 %38, 1
  store i32 %39, ptr %11, align 4, !tbaa !32
  %40 = sext i32 %38 to i64
  %41 = getelementptr inbounds [75 x double], ptr %37, i64 0, i64 %40
  %42 = load double, ptr %41, align 8, !tbaa !62
  %43 = load ptr, ptr %6, align 8, !tbaa !34
  %44 = getelementptr inbounds nuw %struct.DeNoiseChannel, ptr %43, i32 0, i32 0
  %45 = load i32, ptr %14, align 4, !tbaa !32
  %46 = sext i32 %45 to i64
  %47 = getelementptr inbounds [15 x double], ptr %44, i64 0, i64 %46
  %48 = load double, ptr %47, align 8, !tbaa !62
  %49 = load double, ptr %9, align 8, !tbaa !62
  %50 = call nsz double @llvm.fmuladd.f64(double %42, double %48, double %49)
  store double %50, ptr %9, align 8, !tbaa !62
  br label %51

51:                                               ; preds = %35
  %52 = load i32, ptr %14, align 4, !tbaa !32
  %53 = add nsw i32 %52, 1
  store i32 %53, ptr %14, align 4, !tbaa !32
  br label %31, !llvm.loop !153

54:                                               ; preds = %34
  %55 = load double, ptr %9, align 8, !tbaa !62
  %56 = load ptr, ptr %5, align 8, !tbaa !22
  %57 = getelementptr inbounds nuw %struct.AudioFFTDeNoiseContext, ptr %56, i32 0, i32 42
  %58 = load i32, ptr %13, align 4, !tbaa !32
  %59 = sext i32 %58 to i64
  %60 = getelementptr inbounds [5 x double], ptr %57, i64 0, i64 %59
  store double %55, ptr %60, align 8, !tbaa !62
  br label %61

61:                                               ; preds = %54
  %62 = load i32, ptr %13, align 4, !tbaa !32
  %63 = add nsw i32 %62, 1
  store i32 %63, ptr %13, align 4, !tbaa !32
  br label %26, !llvm.loop !154

64:                                               ; preds = %29
  %65 = load ptr, ptr %5, align 8, !tbaa !22
  %66 = getelementptr inbounds nuw %struct.AudioFFTDeNoiseContext, ptr %65, i32 0, i32 41
  %67 = getelementptr inbounds [25 x double], ptr %66, i64 0, i64 0
  %68 = load ptr, ptr %5, align 8, !tbaa !22
  %69 = getelementptr inbounds nuw %struct.AudioFFTDeNoiseContext, ptr %68, i32 0, i32 42
  %70 = getelementptr inbounds [5 x double], ptr %69, i64 0, i64 0
  call void @solve(ptr noundef %67, ptr noundef %70, i32 noundef 5)
  %71 = load ptr, ptr %5, align 8, !tbaa !22
  %72 = getelementptr inbounds nuw %struct.AudioFFTDeNoiseContext, ptr %71, i32 0, i32 21
  %73 = load float, ptr %72, align 4, !tbaa !71
  %74 = fpext nsz float %73 to double
  %75 = fmul nsz double 5.000000e-01, %74
  %76 = load ptr, ptr %5, align 8, !tbaa !22
  %77 = getelementptr inbounds nuw %struct.AudioFFTDeNoiseContext, ptr %76, i32 0, i32 29
  %78 = getelementptr inbounds [15 x i32], ptr %77, i64 0, i64 14
  %79 = load i32, ptr %78, align 4, !tbaa !32
  %80 = sitofp i32 %79 to double
  %81 = fdiv nsz double %75, %80
  store double %81, ptr %10, align 8, !tbaa !62
  %82 = load double, ptr %10, align 8, !tbaa !62
  %83 = fdiv nsz double %82, 1.500000e+00
  %84 = call nsz double @llvm.log.f64(double %83)
  %85 = call nsz double @llvm.log.f64(double 1.500000e+00)
  %86 = fdiv nsz double %84, %85
  %87 = fadd nsz double 1.500000e+01, %86
  store double %87, ptr %10, align 8, !tbaa !62
  store double 0.000000e+00, ptr %9, align 8, !tbaa !62
  store double 1.000000e+00, ptr %8, align 8, !tbaa !62
  call void @llvm.lifetime.start.p0(i64 4, ptr %15) #12
  store i32 0, ptr %15, align 4, !tbaa !32
  br label %88

88:                                               ; preds = %105, %64
  %89 = load i32, ptr %15, align 4, !tbaa !32
  %90 = icmp slt i32 %89, 5
  br i1 %90, label %92, label %91

91:                                               ; preds = %88
  store i32 8, ptr %12, align 4
  call void @llvm.lifetime.end.p0(i64 4, ptr %15) #12
  br label %108

92:                                               ; preds = %88
  %93 = load double, ptr %8, align 8, !tbaa !62
  %94 = load ptr, ptr %5, align 8, !tbaa !22
  %95 = getelementptr inbounds nuw %struct.AudioFFTDeNoiseContext, ptr %94, i32 0, i32 42
  %96 = load i32, ptr %15, align 4, !tbaa !32
  %97 = sext i32 %96 to i64
  %98 = getelementptr inbounds [5 x double], ptr %95, i64 0, i64 %97
  %99 = load double, ptr %98, align 8, !tbaa !62
  %100 = load double, ptr %9, align 8, !tbaa !62
  %101 = call nsz double @llvm.fmuladd.f64(double %93, double %99, double %100)
  store double %101, ptr %9, align 8, !tbaa !62
  %102 = load double, ptr %10, align 8, !tbaa !62
  %103 = load double, ptr %8, align 8, !tbaa !62
  %104 = fmul nsz double %103, %102
  store double %104, ptr %8, align 8, !tbaa !62
  br label %105

105:                                              ; preds = %92
  %106 = load i32, ptr %15, align 4, !tbaa !32
  %107 = add nsw i32 %106, 1
  store i32 %107, ptr %15, align 4, !tbaa !32
  br label %88, !llvm.loop !155

108:                                              ; preds = %91
  %109 = load double, ptr %9, align 8, !tbaa !62
  store double %109, ptr %4, align 8
  store i32 1, ptr %12, align 4
  br label %110

110:                                              ; preds = %108, %18
  call void @llvm.lifetime.end.p0(i64 4, ptr %11) #12
  call void @llvm.lifetime.end.p0(i64 8, ptr %10) #12
  call void @llvm.lifetime.end.p0(i64 8, ptr %9) #12
  call void @llvm.lifetime.end.p0(i64 8, ptr %8) #12
  %111 = load double, ptr %4, align 8
  ret double %111
}