; Function Attrs: nofree norecurse nosync nounwind memory(argmem: readwrite) uwtable
define internal fastcc double @process_get_band_noise(ptr noundef captures(none) %0, ptr noundef readonly captures(none) %1, i32 noundef %2) unnamed_addr #8 {
  %4 = icmp slt i32 %2, 15
  br i1 %4, label %7, label %.preheader37

.preheader37:                                     ; preds = %3
  %5 = getelementptr inbounds nuw i8, ptr %0, i64 584
  %6 = getelementptr inbounds nuw i8, ptr %0, i64 544
  br label %.preheader

7:                                                ; preds = %3
  %8 = sext i32 %2 to i64
  %9 = getelementptr inbounds [15 x double], ptr %1, i64 0, i64 %8
  %10 = load double, ptr %9, align 8, !tbaa !83
  br label %.loopexit

.preheader:                                       ; preds = %.preheader37, %49
  %indvars.iv56 = phi i64 [ 0, %.preheader37 ], [ %indvars.iv.next57, %49 ]
  %indvars.iv54 = phi i64 [ 0, %.preheader37 ], [ %indvars.iv.next55, %49 ]
  br label %51

11:                                               ; preds = %49
  %12 = getelementptr inbounds nuw i8, ptr %0, i64 344
  br label %.lr.ph.i

.loopexit.i:                                      ; preds = %20
  %indvars.iv.next59.i = add nuw nsw i64 %indvars.iv58.i, 1
  %indvars.iv.next.i = add nuw nsw i64 %indvars.iv.i, 1
  %exitcond61.not.i = icmp eq i64 %indvars.iv.next59.i, 4
  br i1 %exitcond61.not.i, label %13, label %.lr.ph.i, !llvm.loop !104

13:                                               ; preds = %.loopexit.i
  %14 = getelementptr inbounds nuw i8, ptr %0, i64 536
  %15 = load double, ptr %14, align 8, !tbaa !83
  %16 = getelementptr inbounds nuw i8, ptr %0, i64 576
  %17 = load double, ptr %16, align 8, !tbaa !83
  %18 = fdiv nsz double %17, %15
  store double %18, ptr %16, align 8, !tbaa !83
  br label %.lr.ph53.preheader.i

.lr.ph.i:                                         ; preds = %.loopexit.i, %11
  %indvars.iv58.i = phi i64 [ 0, %11 ], [ %indvars.iv.next59.i, %.loopexit.i ]
  %indvars.iv.i = phi i64 [ 1, %11 ], [ %indvars.iv.next.i, %.loopexit.i ]
  %19 = getelementptr inbounds nuw double, ptr %6, i64 %indvars.iv58.i
  %.idx.i = mul nuw nsw i64 %indvars.iv58.i, 40
  %invariant.gep.i = getelementptr inbounds nuw i8, ptr %12, i64 %.idx.i
  br label %20

20:                                               ; preds = %20, %.lr.ph.i
  %indvars.iv55.i = phi i64 [ %indvars.iv.i, %.lr.ph.i ], [ %indvars.iv.next56.i, %20 ]
  %gep.i = getelementptr inbounds nuw double, ptr %invariant.gep.i, i64 %indvars.iv55.i
  %21 = load double, ptr %gep.i, align 8, !tbaa !83
  %22 = load double, ptr %19, align 8, !tbaa !83
  %23 = getelementptr inbounds nuw double, ptr %6, i64 %indvars.iv55.i
  %24 = load double, ptr %23, align 8, !tbaa !83
  %25 = fneg nsz double %21
  %26 = tail call nsz double @llvm.fmuladd.f64(double %25, double %22, double %24)
  store double %26, ptr %23, align 8, !tbaa !83
  %indvars.iv.next56.i = add nuw nsw i64 %indvars.iv55.i, 1
  %exitcond.not.i = icmp eq i64 %indvars.iv.next56.i, 5
  br i1 %exitcond.not.i, label %.loopexit.i, label %20, !llvm.loop !105

.lr.ph53.preheader.i:                             ; preds = %._crit_edge.i, %13
  %indvars.iv62.i = phi i64 [ 3, %13 ], [ %indvars.iv.next63.i, %._crit_edge.i ]
  %27 = getelementptr inbounds nuw double, ptr %6, i64 %indvars.iv62.i
  %28 = load double, ptr %27, align 8, !tbaa !83
  %invariant.gep71.i = getelementptr double, ptr %12, i64 %indvars.iv62.i
  br label %.lr.ph53.i

._crit_edge.i:                                    ; preds = %.lr.ph53.i
  %.idx70.i = mul nuw nsw i64 %indvars.iv62.i, 48
  %29 = getelementptr inbounds nuw i8, ptr %12, i64 %.idx70.i
  %30 = load double, ptr %29, align 8, !tbaa !83
  %31 = fdiv nsz double %36, %30
  store double %31, ptr %27, align 8, !tbaa !83
  %indvars.iv.next63.i = add nsw i64 %indvars.iv62.i, -1
  %.not.i = icmp eq i64 %indvars.iv62.i, 0
  br i1 %.not.i, label %solve.exit, label %.lr.ph53.preheader.i, !llvm.loop !106

.lr.ph53.i:                                       ; preds = %.lr.ph53.i, %.lr.ph53.preheader.i
  %indvars.iv64.i = phi i64 [ %indvars.iv62.i, %.lr.ph53.preheader.i ], [ %indvars.iv.next65.i, %.lr.ph53.i ]
  %.04351.i = phi double [ %28, %.lr.ph53.preheader.i ], [ %36, %.lr.ph53.i ]
  %indvars.iv.next65.i = add nuw nsw i64 %indvars.iv64.i, 1
  %.idx69.i = mul nuw nsw i64 %indvars.iv.next65.i, 40
  %gep72.i = getelementptr i8, ptr %invariant.gep71.i, i64 %.idx69.i
  %32 = load double, ptr %gep72.i, align 8, !tbaa !83
  %33 = getelementptr inbounds nuw double, ptr %6, i64 %indvars.iv.next65.i
  %34 = load double, ptr %33, align 8, !tbaa !83
  %35 = fneg nsz double %32
  %36 = tail call nsz double @llvm.fmuladd.f64(double %35, double %34, double %.04351.i)
  %exitcond67.not.i = icmp eq i64 %indvars.iv.next65.i, 4
  br i1 %exitcond67.not.i, label %._crit_edge.i, label %.lr.ph53.i, !llvm.loop !107

solve.exit:                                       ; preds = %._crit_edge.i
  %37 = getelementptr inbounds nuw i8, ptr %0, i64 108
  %38 = load float, ptr %37, align 4, !tbaa !128
  %39 = fpext nsz float %38 to double
  %40 = fmul nsz double %39, 5.000000e-01
  %41 = getelementptr inbounds nuw i8, ptr %0, i64 196
  %42 = load i32, ptr %41, align 4, !tbaa !90
  %43 = sitofp i32 %42 to double
  %44 = fdiv nsz double %40, %43
  %45 = fdiv nsz double %44, 1.500000e+00
  %46 = tail call nsz double @llvm.log.f64(double %45)
  %47 = fdiv nsz double %46, 0x3FD9F323ECBF984C
  %48 = fadd nsz double %47, 1.500000e+01
  br label %57

49:                                               ; preds = %51
  %indvars.iv.next57 = add nuw nsw i64 %indvars.iv56, 15
  %50 = getelementptr inbounds nuw [5 x double], ptr %6, i64 0, i64 %indvars.iv54
  store double %56, ptr %50, align 8, !tbaa !83
  %indvars.iv.next55 = add nuw nsw i64 %indvars.iv54, 1
  %exitcond61.not = icmp eq i64 %indvars.iv.next55, 5
  br i1 %exitcond61.not, label %11, label %.preheader, !llvm.loop !195

51:                                               ; preds = %.preheader, %51
  %indvars.iv49 = phi i64 [ %indvars.iv56, %.preheader ], [ %indvars.iv.next50, %51 ]
  %indvars.iv = phi i64 [ 0, %.preheader ], [ %indvars.iv.next, %51 ]
  %.03238 = phi double [ 0.000000e+00, %.preheader ], [ %56, %51 ]
  %indvars.iv.next50 = add nuw nsw i64 %indvars.iv49, 1
  %52 = getelementptr inbounds nuw [75 x double], ptr %5, i64 0, i64 %indvars.iv49
  %53 = load double, ptr %52, align 8, !tbaa !83
  %54 = getelementptr inbounds nuw [15 x double], ptr %1, i64 0, i64 %indvars.iv
  %55 = load double, ptr %54, align 8, !tbaa !83
  %56 = tail call nsz double @llvm.fmuladd.f64(double %53, double %55, double %.03238)
  %indvars.iv.next = add nuw nsw i64 %indvars.iv, 1
  %exitcond.not = icmp eq i64 %indvars.iv.next, 15
  br i1 %exitcond.not, label %49, label %51, !llvm.loop !196

57:                                               ; preds = %solve.exit, %57
  %indvars.iv62 = phi i64 [ 0, %solve.exit ], [ %indvars.iv.next63, %57 ]
  %.13344 = phi double [ 0.000000e+00, %solve.exit ], [ %60, %57 ]
  %.03443 = phi double [ 1.000000e+00, %solve.exit ], [ %61, %57 ]
  %58 = getelementptr inbounds nuw [5 x double], ptr %6, i64 0, i64 %indvars.iv62
  %59 = load double, ptr %58, align 8, !tbaa !83
  %60 = tail call nsz double @llvm.fmuladd.f64(double %.03443, double %59, double %.13344)
  %61 = fmul nsz double %48, %.03443
  %indvars.iv.next63 = add nuw nsw i64 %indvars.iv62, 1
  %exitcond65.not = icmp eq i64 %indvars.iv.next63, 5
  br i1 %exitcond65.not, label %.loopexit, label %57, !llvm.loop !197

.loopexit:                                        ; preds = %57, %7
  %.035 = phi nsz double [ %10, %7 ], [ %60, %57 ]
  ret double %.035
}